; Function Attrs: mustprogress nounwind uwtable
define dso_local void @_ZN22DefaultRndNumGeneratorD2Ev(ptr noundef nonnull align 8 dereferenceable(56) %0) unnamed_addr #4 align 2 personality ptr @__gxx_personality_v0 {
  store ptr getelementptr inbounds ({ [13 x ptr] }, ptr @_ZTV22DefaultRndNumGenerator, i64 0, i32 0, i64 2), ptr %0, align 8
  invoke void @_ZN15SequenceFactory17destroy_sequencesEv()
          to label %2 unwind label %4

2:                                                ; preds = %1
  %3 = getelementptr inbounds i8, ptr %0, i64 16
  tail call void @_ZNSt7__cxx1112basic_stringIcSt11char_traitsIcESaIcEED1Ev(ptr noundef nonnull align 8 dereferenceable(32) %3) #11
  tail call void @_ZN18AbsRndNumGeneratorD2Ev(ptr noundef nonnull align 8 dereferenceable(8) %0) #11
  ret void

4:                                                ; preds = %1
  %5 = landingpad { ptr, i32 }
          catch ptr null
  %6 = extractvalue { ptr, i32 } %5, 0
  tail call void @__clang_call_terminate(ptr %6) #12
  unreachable
}